; Function Attrs: mustprogress uwtable
define hidden void @_ZN22small_object_allocator5resetEv(ptr nocapture noundef nonnull align 8 dereferenceable(520) %this) local_unnamed_addr #6 align 2 {
entry:
  %m_free_list = getelementptr inbounds i8, ptr %this, i64 256
  br label %for.body

for.body:                                         ; preds = %entry, %while.end
  %indvars.iv = phi i64 [ 0, %entry ], [ %indvars.iv.next, %while.end ]
  %arrayidx = getelementptr inbounds [32 x ptr], ptr %this, i64 0, i64 %indvars.iv
  %0 = load ptr, ptr %arrayidx, align 8
  %tobool.not7 = icmp eq ptr %0, null
  br i1 %tobool.not7, label %while.end, label %_Z7deallocIN22small_object_allocator5chunkEEvPT_.exit

_Z7deallocIN22small_object_allocator5chunkEEvPT_.exit: ; preds = %for.body, %_Z7deallocIN22small_object_allocator5chunkEEvPT_.exit
  %c.08 = phi ptr [ %1, %_Z7deallocIN22small_object_allocator5chunkEEvPT_.exit ], [ %0, %for.body ]
  %1 = load ptr, ptr %c.08, align 8
  tail call void @_ZN6memory10deallocateEPv(ptr noundef nonnull %c.08)
  %tobool.not = icmp eq ptr %1, null
  br i1 %tobool.not, label %while.end, label %_Z7deallocIN22small_object_allocator5chunkEEvPT_.exit, !llvm.loop !6

while.end:                                        ; preds = %_Z7deallocIN22small_object_allocator5chunkEEvPT_.exit, %for.body
  store ptr null, ptr %arrayidx, align 8
  %arrayidx6 = getelementptr inbounds [32 x ptr], ptr %m_free_list, i64 0, i64 %indvars.iv
  store ptr null, ptr %arrayidx6, align 8
  %indvars.iv.next = add nuw nsw i64 %indvars.iv, 1
  %exitcond.not = icmp eq i64 %indvars.iv.next, 32
  br i1 %exitcond.not, label %for.end, label %for.body, !llvm.loop !7

for.end:                                          ; preds = %while.end
  %m_alloc_size = getelementptr inbounds i8, ptr %this, i64 512
  store i64 0, ptr %m_alloc_size, align 8
  ret void
}